target datalayout = "e-m:e-p270:32:32-p271:32:32-p272:64:64-i64:64-i128:128-f80:128-n8:16:32:64-S128"
target triple = "x86_64-pc-linux-gnu"

%struct.ident_t = type { i32, i32, i32, i32, ptr }
%"class.ncnn::Mat" = type { ptr, ptr, i64, i32, ptr, i32, i32, i32, i32, i32, i64 }
%"class.ncnn::Option" = type { i8, i32, ptr, ptr, i32, i8, i8, i8, i8, i8, i8, i8, i8, i8, i8, i8, i8, i8, i8, i8, i8, i8, i8, i8, i8, i32, i8, i8, i8, i8, i8, i8, i8, i8, i8, i8, i8, i8 }

@2 = private unnamed_addr constant %struct.ident_t { i32 0, i32 2, i32 0, i32 22, ptr @0 }, align 8

; Function Attrs: mustprogress nounwind uwtable
define hidden noundef i32 @_ZNK4ncnn4Bias15forward_inplaceERNS_3MatERKNS_6OptionE(ptr noundef nonnull align 8 dereferenceable(288) %0, ptr noundef nonnull align 8 dereferenceable(72) %1, ptr noundef nonnull align 8 dereferenceable(64) %2) unnamed_addr #3 align 2 {
  %4 = alloca ptr, align 8
  %5 = alloca ptr, align 8
  %6 = alloca ptr, align 8
  %7 = alloca i32, align 4
  %8 = alloca i32, align 4
  %9 = alloca i32, align 4
  %10 = alloca i32, align 4
  %11 = alloca i32, align 4
  %12 = call i32 @__kmpc_global_thread_num(ptr @2)
  store ptr %0, ptr %4, align 8, !tbaa !4
  store ptr %1, ptr %5, align 8, !tbaa !36
  store ptr %2, ptr %6, align 8, !tbaa !37
  %13 = load ptr, ptr %4, align 8
  call void @llvm.lifetime.start.p0(i64 4, ptr %7) #10
  %14 = load ptr, ptr %5, align 8, !tbaa !36
  %15 = getelementptr inbounds nuw %"class.ncnn::Mat", ptr %14, i32 0, i32 6
  %16 = load i32, ptr %15, align 4, !tbaa !39
  store i32 %16, ptr %7, align 4, !tbaa !40
  call void @llvm.lifetime.start.p0(i64 4, ptr %8) #10
  %17 = load ptr, ptr %5, align 8, !tbaa !36
  %18 = getelementptr inbounds nuw %"class.ncnn::Mat", ptr %17, i32 0, i32 7
  %19 = load i32, ptr %18, align 8, !tbaa !41
  store i32 %19, ptr %8, align 4, !tbaa !40
  call void @llvm.lifetime.start.p0(i64 4, ptr %9) #10
  %20 = load ptr, ptr %5, align 8, !tbaa !36
  %21 = getelementptr inbounds nuw %"class.ncnn::Mat", ptr %20, i32 0, i32 8
  %22 = load i32, ptr %21, align 4, !tbaa !42
  store i32 %22, ptr %9, align 4, !tbaa !40
  call void @llvm.lifetime.start.p0(i64 4, ptr %10) #10
  %23 = load ptr, ptr %5, align 8, !tbaa !36
  %24 = getelementptr inbounds nuw %"class.ncnn::Mat", ptr %23, i32 0, i32 9
  %25 = load i32, ptr %24, align 8, !tbaa !43
  store i32 %25, ptr %10, align 4, !tbaa !40
  call void @llvm.lifetime.start.p0(i64 4, ptr %11) #10
  %26 = load i32, ptr %7, align 4, !tbaa !40
  %27 = load i32, ptr %8, align 4, !tbaa !40
  %28 = mul nsw i32 %26, %27
  %29 = load i32, ptr %9, align 4, !tbaa !40
  %30 = mul nsw i32 %28, %29
  store i32 %30, ptr %11, align 4, !tbaa !40
  %31 = load ptr, ptr %6, align 8, !tbaa !37
  %32 = getelementptr inbounds nuw %"class.ncnn::Option", ptr %31, i32 0, i32 1
  %33 = load i32, ptr %32, align 4, !tbaa !44
  call void @__kmpc_push_num_threads(ptr @2, i32 %12, i32 %33)
  %34 = load ptr, ptr %5, align 8, !tbaa !36
  call void (ptr, i32, ptr, ...) @__kmpc_fork_call(ptr @2, i32 4, ptr @_ZNK4ncnn4Bias15forward_inplaceERNS_3MatERKNS_6OptionE.omp_outlined, ptr %10, ptr %34, ptr %13, ptr %11)
  call void @llvm.lifetime.end.p0(i64 4, ptr %11) #10
  call void @llvm.lifetime.end.p0(i64 4, ptr %10) #10
  call void @llvm.lifetime.end.p0(i64 4, ptr %9) #10
  call void @llvm.lifetime.end.p0(i64 4, ptr %8) #10
  call void @llvm.lifetime.end.p0(i64 4, ptr %7) #10
  ret i32 0
}