; Function Attrs: mustprogress nounwind uwtable
define hidden noundef i32 @_ZNK4ncnn4Bias15forward_inplaceERNS_3MatERKNS_6OptionE(ptr noundef nonnull align 8 dereferenceable(288) %0, ptr noundef nonnull align 8 dereferenceable(72) %1, ptr noundef nonnull readonly align 8 captures(none) dereferenceable(64) %2) unnamed_addr #3 align 2 {
  %4 = alloca i32, align 4
  %5 = alloca i32, align 4
  %6 = tail call i32 @__kmpc_global_thread_num(ptr nonnull @2)
  %7 = getelementptr inbounds nuw i8, ptr %1, i64 44
  %8 = load i32, ptr %7, align 4, !tbaa !37
  %9 = getelementptr inbounds nuw i8, ptr %1, i64 48
  %10 = load i32, ptr %9, align 8, !tbaa !38
  %11 = getelementptr inbounds nuw i8, ptr %1, i64 52
  %12 = load i32, ptr %11, align 4, !tbaa !39
  call void @llvm.lifetime.start.p0(i64 4, ptr nonnull %4) #10
  %13 = getelementptr inbounds nuw i8, ptr %1, i64 56
  %14 = load i32, ptr %13, align 8, !tbaa !40
  store i32 %14, ptr %4, align 4, !tbaa !41
  call void @llvm.lifetime.start.p0(i64 4, ptr nonnull %5) #10
  %15 = mul nsw i32 %10, %8
  %16 = mul nsw i32 %15, %12
  store i32 %16, ptr %5, align 4, !tbaa !41
  %17 = getelementptr inbounds nuw i8, ptr %2, i64 4
  %18 = load i32, ptr %17, align 4, !tbaa !42
  tail call void @__kmpc_push_num_threads(ptr nonnull @2, i32 %6, i32 %18)
  call void (ptr, i32, ptr, ...) @__kmpc_fork_call(ptr nonnull @2, i32 4, ptr nonnull @_ZNK4ncnn4Bias15forward_inplaceERNS_3MatERKNS_6OptionE.omp_outlined, ptr nonnull %4, ptr nonnull %1, ptr nonnull %0, ptr nonnull %5)
  call void @llvm.lifetime.end.p0(i64 4, ptr nonnull %5) #10
  call void @llvm.lifetime.end.p0(i64 4, ptr nonnull %4) #10
  ret i32 0
}